target datalayout = "e-m:e-p270:32:32-p271:32:32-p272:64:64-i64:64-i128:128-f80:128-n8:16:32:64-S128"
target triple = "x86_64-pc-linux-gnu"

%"class.zxing::qrcode::FormatInformation" = type { %"class.zxing::Counted.base", ptr, i8, float }
%"class.zxing::Counted.base" = type <{ ptr, i32 }>

; Function Attrs: mustprogress nounwind uwtable
define hidden noundef zeroext i1 @_ZN5zxing6qrcodeeqERKNS0_17FormatInformationES3_(ptr noundef nonnull align 8 dereferenceable(32) %0, ptr noundef nonnull align 8 dereferenceable(32) %1) #1 {
  %3 = alloca ptr, align 8
  %4 = alloca ptr, align 8
  store ptr %0, ptr %3, align 8, !tbaa !3
  store ptr %1, ptr %4, align 8, !tbaa !3
  %5 = load ptr, ptr %3, align 8, !tbaa !3
  %6 = getelementptr inbounds nuw %"class.zxing::qrcode::FormatInformation", ptr %5, i32 0, i32 1
  %7 = load ptr, ptr %6, align 8, !tbaa !25
  %8 = load ptr, ptr %4, align 8, !tbaa !3
  %9 = getelementptr inbounds nuw %"class.zxing::qrcode::FormatInformation", ptr %8, i32 0, i32 1
  %10 = load ptr, ptr %9, align 8, !tbaa !25
  %11 = icmp eq ptr %7, %10
  br i1 %11, label %12, label %22

12:                                               ; preds = %2
  %13 = load ptr, ptr %3, align 8, !tbaa !3
  %14 = getelementptr inbounds nuw %"class.zxing::qrcode::FormatInformation", ptr %13, i32 0, i32 2
  %15 = load i8, ptr %14, align 8, !tbaa !18
  %16 = sext i8 %15 to i32
  %17 = load ptr, ptr %4, align 8, !tbaa !3
  %18 = getelementptr inbounds nuw %"class.zxing::qrcode::FormatInformation", ptr %17, i32 0, i32 2
  %19 = load i8, ptr %18, align 8, !tbaa !18
  %20 = sext i8 %19 to i32
  %21 = icmp eq i32 %16, %20
  br label %22

22:                                               ; preds = %12, %2
  %23 = phi i1 [ false, %2 ], [ %21, %12 ]
  ret i1 %23
}