; Function Attrs: mustprogress nofree norecurse nosync nounwind willreturn memory(argmem: read) uwtable
define hidden noundef zeroext i1 @_ZN5zxing6qrcodeeqERKNS0_17FormatInformationES3_(ptr noundef nonnull readonly align 8 captures(none) dereferenceable(32) %0, ptr noundef nonnull readonly align 8 captures(none) dereferenceable(32) %1) local_unnamed_addr #2 {
  %3 = getelementptr inbounds nuw i8, ptr %0, i64 16
  %4 = load ptr, ptr %3, align 8, !tbaa !17
  %5 = getelementptr inbounds nuw i8, ptr %1, i64 16
  %6 = load ptr, ptr %5, align 8, !tbaa !17
  %7 = icmp eq ptr %4, %6
  %8 = getelementptr inbounds nuw i8, ptr %0, i64 24
  %9 = load i8, ptr %8, align 8
  %10 = getelementptr inbounds nuw i8, ptr %1, i64 24
  %11 = load i8, ptr %10, align 8
  %12 = icmp eq i8 %9, %11
  %13 = select i1 %7, i1 %12, i1 false
  ret i1 %13
}